target datalayout = "e-m:e-p270:32:32-p271:32:32-p272:64:64-i64:64-i128:128-f80:128-n8:16:32:64-S128"
target triple = "x86_64-pc-linux-gnu"

; Function Attrs: nounwind uwtable
define ptr @Sfm_MitStart(ptr noundef %0, ptr noundef %1, ptr noundef %2, ptr noundef %3, i32 noundef %4) #0 {
  %6 = alloca ptr, align 8
  %7 = alloca ptr, align 8
  %8 = alloca ptr, align 8
  %9 = alloca ptr, align 8
  %10 = alloca i32, align 4
  store ptr %0, ptr %6, align 8, !tbaa !3
  store ptr %1, ptr %7, align 8, !tbaa !8
  store ptr %2, ptr %8, align 8, !tbaa !10
  store ptr %3, ptr %9, align 8, !tbaa !12
  store i32 %4, ptr %10, align 4, !tbaa !14
  ret ptr null
}

; Function Attrs: nounwind uwtable
define void @Sfm_MitStop(ptr noundef %0) #0 {
  %2 = alloca ptr, align 8
  store ptr %0, ptr %2, align 8, !tbaa !16
  ret void
}

; Function Attrs: nounwind uwtable
define i32 @Sfm_MitReadNtkDelay(ptr noundef %0) #0 {
  %2 = alloca ptr, align 8
  store ptr %0, ptr %2, align 8, !tbaa !16
  ret i32 0
}

; Function Attrs: nounwind uwtable
define i32 @Sfm_MitReadNtkMinSlack(ptr noundef %0) #0 {
  %2 = alloca ptr, align 8
  store ptr %0, ptr %2, align 8, !tbaa !16
  ret i32 0
}

; Function Attrs: nounwind uwtable
define i32 @Sfm_MitReadObjDelay(ptr noundef %0, i32 noundef %1) #0 {
  %3 = alloca ptr, align 8
  %4 = alloca i32, align 4
  store ptr %0, ptr %3, align 8, !tbaa !16
  store i32 %1, ptr %4, align 4, !tbaa !14
  ret i32 0
}

; Function Attrs: nounwind uwtable
define void @Sfm_MitTransferLoad(ptr noundef %0, ptr noundef %1, ptr noundef %2) #0 {
  %4 = alloca ptr, align 8
  %5 = alloca ptr, align 8
  %6 = alloca ptr, align 8
  store ptr %0, ptr %4, align 8, !tbaa !16
  store ptr %1, ptr %5, align 8, !tbaa !18
  store ptr %2, ptr %6, align 8, !tbaa !18
  ret void
}

; Function Attrs: nounwind uwtable
define void @Sfm_MitTimingGrow(ptr noundef %0) #0 {
  %2 = alloca ptr, align 8
  store ptr %0, ptr %2, align 8, !tbaa !16
  ret void
}

; Function Attrs: nounwind uwtable
define void @Sfm_MitUpdateLoad(ptr noundef %0, ptr noundef %1, i32 noundef %2) #0 {
  %4 = alloca ptr, align 8
  %5 = alloca ptr, align 8
  %6 = alloca i32, align 4
  store ptr %0, ptr %4, align 8, !tbaa !16
  store ptr %1, ptr %5, align 8, !tbaa !20
  store i32 %2, ptr %6, align 4, !tbaa !14
  ret void
}

; Function Attrs: nounwind uwtable
define void @Sfm_MitUpdateTiming(ptr noundef %0, ptr noundef %1) #0 {
  %3 = alloca ptr, align 8
  %4 = alloca ptr, align 8
  store ptr %0, ptr %3, align 8, !tbaa !16
  store ptr %1, ptr %4, align 8, !tbaa !20
  ret void
}

; Function Attrs: nounwind uwtable
define i32 @Sfm_MitSortArrayByArrival(ptr noundef %0, ptr noundef %1, i32 noundef %2) #0 {
  %4 = alloca ptr, align 8
  %5 = alloca ptr, align 8
  %6 = alloca i32, align 4
  store ptr %0, ptr %4, align 8, !tbaa !16
  store ptr %1, ptr %5, align 8, !tbaa !20
  store i32 %2, ptr %6, align 4, !tbaa !14
  ret i32 0
}

; Function Attrs: nounwind uwtable
define i32 @Sfm_MitPriorityNodes(ptr noundef %0, ptr noundef %1, i32 noundef %2) #0 {
  %4 = alloca ptr, align 8
  %5 = alloca ptr, align 8
  %6 = alloca i32, align 4
  store ptr %0, ptr %4, align 8, !tbaa !16
  store ptr %1, ptr %5, align 8, !tbaa !20
  store i32 %2, ptr %6, align 4, !tbaa !14
  ret i32 0
}

; Function Attrs: nounwind uwtable
define i32 @Sfm_MitNodeIsNonCritical(ptr noundef %0, ptr noundef %1, ptr noundef %2) #0 {
  %4 = alloca ptr, align 8
  %5 = alloca ptr, align 8
  %6 = alloca ptr, align 8
  store ptr %0, ptr %4, align 8, !tbaa !16
  store ptr %1, ptr %5, align 8, !tbaa !18
  store ptr %2, ptr %6, align 8, !tbaa !18
  ret i32 0
}

; Function Attrs: nounwind uwtable
define i32 @Sfm_MitEvalRemapping(ptr noundef %0, ptr noundef %1, ptr noundef %2, ptr noundef %3, ptr noundef %4, ptr noundef %5, ptr noundef %6, ptr noundef %7, ptr noundef %8) #0 {
  %10 = alloca ptr, align 8
  %11 = alloca ptr, align 8
  %12 = alloca ptr, align 8
  %13 = alloca ptr, align 8
  %14 = alloca ptr, align 8
  %15 = alloca ptr, align 8
  %16 = alloca ptr, align 8
  %17 = alloca ptr, align 8
  %18 = alloca ptr, align 8
  store ptr %0, ptr %10, align 8, !tbaa !16
  store ptr %1, ptr %11, align 8, !tbaa !20
  store ptr %2, ptr %12, align 8, !tbaa !18
  store ptr %3, ptr %13, align 8, !tbaa !20
  store ptr %4, ptr %14, align 8, !tbaa !20
  store ptr %5, ptr %15, align 8, !tbaa !22
  store ptr %6, ptr %16, align 8, !tbaa !24
  store ptr %7, ptr %17, align 8, !tbaa !22
  store ptr %8, ptr %18, align 8, !tbaa !24
  ret i32 0
}


!llvm.module.flags = !{!0, !1, !2}

!0 = !{i32 1, !"wchar_size", i32 4}
!1 = !{i32 8, !"PIC Level", i32 2}
!2 = !{i32 7, !"uwtable", i32 2}
!3 = !{!4, !4, i64 0}
!4 = !{!"p1 _ZTS20Mio_LibraryStruct_t_", !5, i64 0}
!5 = !{!"any pointer", !6, i64 0}
!6 = !{!"omnipotent char", !7, i64 0}
!7 = !{!"Simple C/C++ TBAA"}
!8 = !{!9, !9, i64 0}
!9 = !{!"p1 _ZTS7SC_Lib_", !5, i64 0}
!10 = !{!11, !11, i64 0}
!11 = !{!"p1 _ZTS10Scl_Con_t_", !5, i64 0}
!12 = !{!13, !13, i64 0}
!13 = !{!"p1 _ZTS10Abc_Ntk_t_", !5, i64 0}
!14 = !{!15, !15, i64 0}
!15 = !{!"int", !6, i64 0}
!16 = !{!17, !17, i64 0}
!17 = !{!"p1 _ZTS10Sfm_Mit_t_", !5, i64 0}
!18 = !{!19, !19, i64 0}
!19 = !{!"p1 _ZTS10Abc_Obj_t_", !5, i64 0}
!20 = !{!21, !21, i64 0}
!21 = !{!"p1 _ZTS10Vec_Int_t_", !5, i64 0}
!22 = !{!23, !23, i64 0}
!23 = !{!"p1 _ZTS17Mio_GateStruct_t_", !5, i64 0}
!24 = !{!25, !25, i64 0}
!25 = !{!"p1 omnipotent char", !5, i64 0}
